; Function Attrs: nounwind uwtable
define internal fastcc i32 @background_thread_create_signals_masked(ptr noundef %0, ptr noundef %1) unnamed_addr #0 {
  %3 = alloca %struct.__sigset_t, align 8
  %4 = alloca %struct.__sigset_t, align 8
  call void @llvm.lifetime.start.p0(i64 128, ptr nonnull %3) #12
  %5 = call i32 @sigfillset(ptr noundef nonnull %3) #12
  call void @llvm.lifetime.start.p0(i64 128, ptr nonnull %4) #12
  %6 = call i32 @pthread_sigmask(i32 noundef 2, ptr noundef nonnull %3, ptr noundef nonnull %4) #12
  %.not = icmp eq i32 %6, 0
  br i1 %.not, label %7, label %14

7:                                                ; preds = %2
  %8 = call i32 @pthread_create(ptr noundef %0, ptr noundef null, ptr noundef nonnull @background_thread_entry, ptr noundef %1), !callees !3
  %9 = call i32 @pthread_sigmask(i32 noundef 2, ptr noundef nonnull %4, ptr noundef null) #12
  %.not12 = icmp eq i32 %9, 0
  br i1 %.not12, label %14, label %10

10:                                               ; preds = %7
  call void (ptr, ...) @duckdb_je_malloc_printf(ptr noundef nonnull @.str.3, i32 noundef %8, i32 noundef %9) #12
  %11 = load i8, ptr @duckdb_je_opt_abort, align 1, !tbaa !25, !range !26, !noundef !27
  %12 = trunc nuw i8 %11 to i1
  br i1 %12, label %13, label %14

13:                                               ; preds = %10
  call void @abort() #13
  unreachable

14:                                               ; preds = %7, %10, %2
  %.0 = phi i32 [ %6, %2 ], [ %8, %10 ], [ %8, %7 ]
  call void @llvm.lifetime.end.p0(i64 128, ptr nonnull %4) #12
  call void @llvm.lifetime.end.p0(i64 128, ptr nonnull %3) #12
  ret i32 %.0
}